; Function Attrs: mustprogress uwtable
define void @_ZN7Imf_3_213RgbaInputFileC2EiRNS_7IStreamEi(ptr noundef nonnull align 8 dereferenceable(64) %this, i32 noundef %partNumber, ptr noundef nonnull align 8 dereferenceable(40) %is, i32 noundef %numThreads) unnamed_addr #3 align 2 personality ptr @__gxx_personality_v0 {
entry:
  %ref.tmp = alloca %"class.std::allocator.5", align 1
  store ptr getelementptr inbounds ({ [4 x ptr] }, ptr @_ZTVN7Imf_3_213RgbaInputFileE, i64 0, i32 0, i64 2), ptr %this, align 8
  %_multiPartFile = getelementptr inbounds i8, ptr %this, i64 8
  %call = tail call noalias noundef nonnull dereferenceable(16) ptr @_Znwm(i64 noundef 16) #23
  invoke void @_ZN7Imf_3_218MultiPartInputFileC1ERNS_7IStreamEib(ptr noundef nonnull align 8 dereferenceable(16) %call, ptr noundef nonnull align 8 dereferenceable(40) %is, i32 noundef %numThreads, i1 noundef zeroext true)
          to label %invoke.cont unwind label %lpad

invoke.cont:                                      ; preds = %entry
  store ptr %call, ptr %_multiPartFile, align 8
  %_inputPart = getelementptr inbounds i8, ptr %this, i64 16
  %_fromYca = getelementptr inbounds i8, ptr %this, i64 24
  %_channelNamePrefix = getelementptr inbounds i8, ptr %this, i64 32
  tail call void @llvm.memset.p0.i64(ptr noundef nonnull align 8 dereferenceable(16) %_inputPart, i8 0, i64 16, i1 false)
  call void @_ZNSaIcEC1Ev(ptr noundef nonnull align 1 dereferenceable(1) %ref.tmp) #25
  %call.i5 = invoke noundef ptr @_ZNSt7__cxx1112basic_stringIcSt11char_traitsIcESaIcEE13_M_local_dataEv(ptr noundef nonnull align 8 dereferenceable(32) %_channelNamePrefix)
          to label %call.i.noexc unwind label %lpad2

call.i.noexc:                                     ; preds = %invoke.cont
  invoke void @_ZNSt7__cxx1112basic_stringIcSt11char_traitsIcESaIcEE12_Alloc_hiderC1EPcRKS3_(ptr noundef nonnull align 8 dereferenceable(8) %_channelNamePrefix, ptr noundef %call.i5, ptr noundef nonnull align 1 dereferenceable(1) %ref.tmp)
          to label %.noexc unwind label %lpad2

.noexc:                                           ; preds = %call.i.noexc
  invoke void @_ZNSt7__cxx1112basic_stringIcSt11char_traitsIcESaIcEE12_M_constructIPKcEEvT_S8_St20forward_iterator_tag(ptr noundef nonnull align 8 dereferenceable(32) %_channelNamePrefix, ptr noundef nonnull @.str.9, ptr noundef nonnull @.str.9)
          to label %invoke.cont3 unwind label %lpad.i

lpad.i:                                           ; preds = %.noexc
  %0 = landingpad { ptr, i32 }
          cleanup
  call void @_ZNSaIcED2Ev(ptr noundef nonnull align 1 dereferenceable(1) %_channelNamePrefix) #25
  br label %lpad2.body

invoke.cont3:                                     ; preds = %.noexc
  call void @_ZNSaIcED1Ev(ptr noundef nonnull align 1 dereferenceable(1) %ref.tmp) #25
  %call6 = invoke noalias noundef nonnull dereferenceable(8) ptr @_Znwm(i64 noundef 8) #23
          to label %invoke.cont5 unwind label %lpad4

invoke.cont5:                                     ; preds = %invoke.cont3
  %1 = load ptr, ptr %_multiPartFile, align 8
  invoke void @_ZN7Imf_3_29InputPartC1ERNS_18MultiPartInputFileEi(ptr noundef nonnull align 8 dereferenceable(8) %call6, ptr noundef nonnull align 8 dereferenceable(16) %1, i32 noundef %partNumber)
          to label %invoke.cont9 unwind label %lpad8

invoke.cont9:                                     ; preds = %invoke.cont5
  store ptr %call6, ptr %_inputPart, align 8
  %call.i7 = invoke noundef nonnull align 8 dereferenceable(49) ptr @_ZNK7Imf_3_29InputPart6headerEv(ptr noundef nonnull align 8 dereferenceable(8) %call6)
          to label %call.i.noexc6 unwind label %lpad4

call.i.noexc6:                                    ; preds = %invoke.cont9
  %call2.i8 = invoke noundef nonnull align 8 dereferenceable(48) ptr @_ZNK7Imf_3_26Header8channelsEv(ptr noundef nonnull align 8 dereferenceable(49) %call.i7)
          to label %call2.i.noexc unwind label %lpad4

call2.i.noexc:                                    ; preds = %call.i.noexc6
  %call3.i9 = invoke fastcc noundef i32 @_ZN7Imf_3_212_GLOBAL__N_112rgbaChannelsERKNS_11ChannelListERKNSt7__cxx1112basic_stringIcSt11char_traitsIcESaIcEEE(ptr noundef nonnull align 8 dereferenceable(48) %call2.i8, ptr noundef nonnull align 8 dereferenceable(32) %_channelNamePrefix)
          to label %invoke.cont11 unwind label %lpad4

invoke.cont11:                                    ; preds = %call2.i.noexc
  %tobool.not = icmp ult i32 %call3.i9, 32
  br i1 %tobool.not, label %try.cont, label %if.then

if.then:                                          ; preds = %invoke.cont11
  %call14 = invoke noalias noundef nonnull dereferenceable(392) ptr @_Znwm(i64 noundef 392) #23
          to label %invoke.cont13 unwind label %lpad4

invoke.cont13:                                    ; preds = %if.then
  %2 = load ptr, ptr %_inputPart, align 8
  invoke void @_ZN7Imf_3_213RgbaInputFile7FromYcaC2ERNS_9InputPartENS_12RgbaChannelsE(ptr noundef nonnull align 8 dereferenceable(392) %call14, ptr noundef nonnull align 8 dereferenceable(8) %2, i32 noundef %call3.i9)
          to label %invoke.cont17 unwind label %lpad16

invoke.cont17:                                    ; preds = %invoke.cont13
  store ptr %call14, ptr %_fromYca, align 8
  br label %try.cont

lpad:                                             ; preds = %entry
  %3 = landingpad { ptr, i32 }
          cleanup
  tail call void @_ZdlPv(ptr noundef nonnull %call) #24
  br label %eh.resume

lpad2:                                            ; preds = %call.i.noexc, %invoke.cont
  %4 = landingpad { ptr, i32 }
          cleanup
  br label %lpad2.body

lpad2.body:                                       ; preds = %lpad.i, %lpad2
  %eh.lpad-body = phi { ptr, i32 } [ %4, %lpad2 ], [ %0, %lpad.i ]
  call void @_ZNSaIcED1Ev(ptr noundef nonnull align 1 dereferenceable(1) %ref.tmp) #25
  br label %eh.resume

lpad4:                                            ; preds = %call2.i.noexc, %call.i.noexc6, %invoke.cont9, %if.then, %invoke.cont3
  %5 = landingpad { ptr, i32 }
          catch ptr null
  br label %catch

lpad8:                                            ; preds = %invoke.cont5
  %6 = landingpad { ptr, i32 }
          catch ptr null
  call void @_ZdlPv(ptr noundef nonnull %call6) #24
  br label %catch

lpad16:                                           ; preds = %invoke.cont13
  %7 = landingpad { ptr, i32 }
          catch ptr null
  call void @_ZdlPv(ptr noundef nonnull %call14) #24
  br label %catch

catch:                                            ; preds = %lpad16, %lpad8, %lpad4
  %.pn = phi { ptr, i32 } [ %7, %lpad16 ], [ %5, %lpad4 ], [ %6, %lpad8 ]
  %exn.slot.0 = extractvalue { ptr, i32 } %.pn, 0
  %8 = call ptr @__cxa_begin_catch(ptr %exn.slot.0) #25
  %9 = load ptr, ptr %_inputPart, align 8
  %tobool20.not = icmp eq ptr %9, null
  br i1 %tobool20.not, label %if.end23, label %delete.notnull

delete.notnull:                                   ; preds = %catch
  call void @_ZdlPv(ptr noundef nonnull %9) #24
  br label %if.end23

if.end23:                                         ; preds = %delete.notnull, %catch
  %10 = load ptr, ptr %_multiPartFile, align 8
  %isnull25 = icmp eq ptr %10, null
  br i1 %isnull25, label %delete.end27, label %delete.notnull26

delete.notnull26:                                 ; preds = %if.end23
  %vtable = load ptr, ptr %10, align 8
  %vfn = getelementptr inbounds i8, ptr %vtable, i64 8
  %11 = load ptr, ptr %vfn, align 8
  call void %11(ptr noundef nonnull align 8 dereferenceable(16) %10) #25
  br label %delete.end27

delete.end27:                                     ; preds = %delete.notnull26, %if.end23
  invoke void @__cxa_rethrow() #27
          to label %unreachable unwind label %lpad28

lpad28:                                           ; preds = %delete.end27
  %12 = landingpad { ptr, i32 }
          cleanup
  invoke void @__cxa_end_catch()
          to label %invoke.cont29 unwind label %terminate.lpad

invoke.cont29:                                    ; preds = %lpad28
  call void @_ZNSt7__cxx1112basic_stringIcSt11char_traitsIcESaIcEED1Ev(ptr noundef nonnull align 8 dereferenceable(32) %_channelNamePrefix) #25
  br label %eh.resume

try.cont:                                         ; preds = %invoke.cont11, %invoke.cont17
  ret void

eh.resume:                                        ; preds = %invoke.cont29, %lpad2.body, %lpad
  %.pn3 = phi { ptr, i32 } [ %12, %invoke.cont29 ], [ %eh.lpad-body, %lpad2.body ], [ %3, %lpad ]
  resume { ptr, i32 } %.pn3

terminate.lpad:                                   ; preds = %lpad28
  %13 = landingpad { ptr, i32 }
          catch ptr null
  %14 = extractvalue { ptr, i32 } %13, 0
  call void @__clang_call_terminate(ptr %14) #26
  unreachable

unreachable:                                      ; preds = %delete.end27
  unreachable
}